target datalayout = "e-m:e-p270:32:32-p271:32:32-p272:64:64-i64:64-i128:128-f80:128-n8:16:32:64-S128"
target triple = "x86_64-pc-linux-gnu"

%struct.H5O_msg_class_t = type { i32, ptr, i64, i32, ptr, ptr, ptr, ptr, ptr, ptr, ptr, ptr, ptr, ptr, ptr, ptr, ptr, ptr, ptr, ptr }

@H5O_init_g = external global i8, align 1
@H5_libterm_g = external global i8, align 1
@.str = private unnamed_addr constant [100 x i8] c"generated/home/dtcxzyw/WorkSpace/Projects/compilers/llvm-opt-benchmark/bench/hdf5/hdf5/src/H5Odbg.c\00", align 1
@__func__.H5O_debug_id = private unnamed_addr constant [13 x i8] c"H5O_debug_id\00", align 1
@H5E_FUNC_g = external global i64, align 8
@H5E_CANTINIT_g = external global i64, align 8
@.str.1 = private unnamed_addr constant [32 x i8] c"interface initialization failed\00", align 1
@H5O_msg_class_g = external constant [26 x ptr], align 16
@H5E_OHDR_g = external global i64, align 8
@H5E_BADTYPE_g = external global i64, align 8
@.str.2 = private unnamed_addr constant [24 x i8] c"unable to debug message\00", align 1

; Function Attrs: nounwind uwtable
define i32 @H5O_debug_id(i32 noundef %0, ptr noundef %1, ptr noundef %2, ptr noundef %3, i32 noundef %4, i32 noundef %5) #0 {
  %7 = alloca i32, align 4
  %8 = alloca ptr, align 8
  %9 = alloca ptr, align 8
  %10 = alloca ptr, align 8
  %11 = alloca i32, align 4
  %12 = alloca i32, align 4
  %13 = alloca ptr, align 8
  %14 = alloca i32, align 4
  %15 = alloca i8, align 1
  store i32 %0, ptr %7, align 4, !tbaa !3
  store ptr %1, ptr %8, align 8, !tbaa !7
  store ptr %2, ptr %9, align 8, !tbaa !10
  store ptr %3, ptr %10, align 8, !tbaa !11
  store i32 %4, ptr %11, align 4, !tbaa !3
  store i32 %5, ptr %12, align 4, !tbaa !3
  call void @llvm.lifetime.start.p0(i64 8, ptr %13) #6
  call void @llvm.lifetime.start.p0(i64 4, ptr %14) #6
  store i32 -1, ptr %14, align 4, !tbaa !3
  call void @llvm.lifetime.start.p0(i64 1, ptr %15) #6
  store i8 0, ptr %15, align 1, !tbaa !13
  %16 = load i8, ptr @H5O_init_g, align 1, !tbaa !13, !range !15, !noundef !16
  %17 = trunc i8 %16 to i1
  br i1 %17, label %22, label %18

18:                                               ; preds = %6
  %19 = load i8, ptr @H5_libterm_g, align 1, !tbaa !13, !range !15, !noundef !16
  %20 = trunc i8 %19 to i1
  %21 = xor i1 %20, true
  br label %22

22:                                               ; preds = %18, %6
  %23 = phi i1 [ false, %6 ], [ %21, %18 ]
  %24 = xor i1 %23, true
  %25 = xor i1 %24, true
  %26 = zext i1 %25 to i32
  %27 = sext i32 %26 to i64
  %28 = call i64 @llvm.expect.i64(i64 %27, i64 0)
  %29 = icmp ne i64 %28, 0
  br i1 %29, label %30, label %53

30:                                               ; preds = %22
  store i8 1, ptr @H5O_init_g, align 1, !tbaa !13
  %31 = call i32 @H5O__init_package()
  %32 = icmp slt i32 %31, 0
  br i1 %32, label %33, label %52

33:                                               ; preds = %30
  store i8 0, ptr @H5O_init_g, align 1, !tbaa !13
  br label %34

34:                                               ; preds = %33
  br label %35

35:                                               ; preds = %34
  br label %36

36:                                               ; preds = %35
  %37 = load i64, ptr @H5E_FUNC_g, align 8, !tbaa !17
  %38 = load i64, ptr @H5E_CANTINIT_g, align 8, !tbaa !17
  %39 = call i32 (ptr, ptr, i32, i64, i64, ptr, ...) @H5E_printf_stack(ptr noundef @.str, ptr noundef @__func__.H5O_debug_id, i32 noundef 239, i64 noundef %37, i64 noundef %38, ptr noundef @.str.1)
  br label %40

40:                                               ; preds = %36
  br label %41

41:                                               ; preds = %40
  store i8 1, ptr %15, align 1, !tbaa !13
  %42 = load i8, ptr %15, align 1, !tbaa !13, !range !15, !noundef !16
  %43 = trunc i8 %42 to i1
  %44 = zext i1 %43 to i8
  store i8 %44, ptr %15, align 1, !tbaa !13
  br label %45

45:                                               ; preds = %41
  br label %46

46:                                               ; preds = %45
  br label %47

47:                                               ; preds = %46
  store i32 -1, ptr %14, align 4, !tbaa !3
  br label %103

48:                                               ; No predecessors!
  br label %49

49:                                               ; preds = %48
  br label %50

50:                                               ; preds = %49
  br label %51

51:                                               ; preds = %50
  br label %52

52:                                               ; preds = %51, %30
  br label %53

53:                                               ; preds = %52, %22
  %54 = load i8, ptr @H5O_init_g, align 1, !tbaa !13, !range !15, !noundef !16
  %55 = trunc i8 %54 to i1
  br i1 %55, label %60, label %56

56:                                               ; preds = %53
  %57 = load i8, ptr @H5_libterm_g, align 1, !tbaa !13, !range !15, !noundef !16
  %58 = trunc i8 %57 to i1
  %59 = xor i1 %58, true
  br label %60

60:                                               ; preds = %56, %53
  %61 = phi i1 [ true, %53 ], [ %59, %56 ]
  %62 = xor i1 %61, true
  %63 = xor i1 %62, true
  %64 = zext i1 %63 to i32
  %65 = sext i32 %64 to i64
  %66 = call i64 @llvm.expect.i64(i64 %65, i64 1)
  %67 = icmp ne i64 %66, 0
  br i1 %67, label %68, label %104

68:                                               ; preds = %60
  %69 = load i32, ptr %7, align 4, !tbaa !3
  %70 = zext i32 %69 to i64
  %71 = getelementptr inbounds nuw [26 x ptr], ptr @H5O_msg_class_g, i64 0, i64 %70
  %72 = load ptr, ptr %71, align 8, !tbaa !19
  store ptr %72, ptr %13, align 8, !tbaa !19
  %73 = load ptr, ptr %13, align 8, !tbaa !19
  %74 = getelementptr inbounds nuw %struct.H5O_msg_class_t, ptr %73, i32 0, i32 19
  %75 = load ptr, ptr %74, align 8, !tbaa !21
  %76 = load ptr, ptr %8, align 8, !tbaa !7
  %77 = load ptr, ptr %9, align 8, !tbaa !10
  %78 = load ptr, ptr %10, align 8, !tbaa !11
  %79 = load i32, ptr %11, align 4, !tbaa !3
  %80 = load i32, ptr %12, align 4, !tbaa !3
  %81 = call i32 %75(ptr noundef %76, ptr noundef %77, ptr noundef %78, i32 noundef %79, i32 noundef %80)
  store i32 %81, ptr %14, align 4, !tbaa !3
  %82 = icmp slt i32 %81, 0
  br i1 %82, label %83, label %102

83:                                               ; preds = %68
  br label %84

84:                                               ; preds = %83
  br label %85

85:                                               ; preds = %84
  br label %86

86:                                               ; preds = %85
  %87 = load i64, ptr @H5E_OHDR_g, align 8, !tbaa !17
  %88 = load i64, ptr @H5E_BADTYPE_g, align 8, !tbaa !17
  %89 = call i32 (ptr, ptr, i32, i64, i64, ptr, ...) @H5E_printf_stack(ptr noundef @.str, ptr noundef @__func__.H5O_debug_id, i32 noundef 254, i64 noundef %87, i64 noundef %88, ptr noundef @.str.2)
  br label %90

90:                                               ; preds = %86
  br label %91

91:                                               ; preds = %90
  store i8 1, ptr %15, align 1, !tbaa !13
  %92 = load i8, ptr %15, align 1, !tbaa !13, !range !15, !noundef !16
  %93 = trunc i8 %92 to i1
  %94 = zext i1 %93 to i8
  store i8 %94, ptr %15, align 1, !tbaa !13
  br label %95

95:                                               ; preds = %91
  br label %96

96:                                               ; preds = %95
  br label %97

97:                                               ; preds = %96
  store i32 -1, ptr %14, align 4, !tbaa !3
  br label %103

98:                                               ; No predecessors!
  br label %99

99:                                               ; preds = %98
  br label %100

100:                                              ; preds = %99
  br label %101

101:                                              ; preds = %100
  br label %102

102:                                              ; preds = %101, %68
  br label %103

103:                                              ; preds = %102, %97, %47
  br label %104

104:                                              ; preds = %103, %60
  %105 = load i32, ptr %14, align 4, !tbaa !3
  call void @llvm.lifetime.end.p0(i64 1, ptr %15) #6
  call void @llvm.lifetime.end.p0(i64 4, ptr %14) #6
  call void @llvm.lifetime.end.p0(i64 8, ptr %13) #6
  ret i32 %105
}