; Function Attrs: nounwind uwtable
define range(i32 -1, -2147483648) i32 @H5O_debug_id(i32 noundef %0, ptr noundef %1, ptr noundef %2, ptr noundef %3, i32 noundef %4, i32 noundef %5) local_unnamed_addr #0 {
  %7 = load i8, ptr @H5O_init_g, align 1, !tbaa !3, !range !7, !noundef !8
  %8 = trunc nuw i8 %7 to i1
  %9 = load i8, ptr @H5_libterm_g, align 1, !range !7
  %10 = trunc nuw i8 %9 to i1
  %11 = select i1 %8, i1 true, i1 %10
  br i1 %11, label %19, label %12, !prof !9

12:                                               ; preds = %6
  store i8 1, ptr @H5O_init_g, align 1, !tbaa !3
  %13 = tail call i32 @H5O__init_package() #8
  %14 = icmp slt i32 %13, 0
  br i1 %14, label %15, label %._crit_edge

._crit_edge:                                      ; preds = %12
  %.pre = load i8, ptr @H5O_init_g, align 1, !tbaa !3, !range !7
  %.pre10 = load i8, ptr @H5_libterm_g, align 1, !range !7
  %.pre11 = trunc nuw i8 %.pre to i1
  %.pre12 = trunc nuw i8 %.pre10 to i1
  br label %19

15:                                               ; preds = %12
  store i8 0, ptr @H5O_init_g, align 1, !tbaa !3
  %16 = load i64, ptr @H5E_FUNC_g, align 8, !tbaa !10
  %17 = load i64, ptr @H5E_CANTINIT_g, align 8, !tbaa !10
  %18 = tail call i32 (ptr, ptr, i32, i64, i64, ptr, ...) @H5E_printf_stack(ptr noundef nonnull @.str, ptr noundef nonnull @__func__.H5O_debug_id, i32 noundef 239, i64 noundef %16, i64 noundef %17, ptr noundef nonnull @.str.1) #8
  br label %34

19:                                               ; preds = %._crit_edge, %6
  %.pre-phi13 = phi i1 [ %.pre12, %._crit_edge ], [ %10, %6 ]
  %.pre-phi = phi i1 [ %.pre11, %._crit_edge ], [ %8, %6 ]
  %20 = xor i1 %.pre-phi13, true
  %21 = select i1 %.pre-phi, i1 true, i1 %20
  br i1 %21, label %22, label %34, !prof !9

22:                                               ; preds = %19
  %23 = zext i32 %0 to i64
  %24 = getelementptr inbounds nuw [26 x ptr], ptr @H5O_msg_class_g, i64 0, i64 %23
  %25 = load ptr, ptr %24, align 8, !tbaa !12
  %26 = getelementptr inbounds nuw i8, ptr %25, i64 152
  %27 = load ptr, ptr %26, align 8, !tbaa !15
  %28 = tail call i32 %27(ptr noundef %1, ptr noundef %2, ptr noundef %3, i32 noundef %4, i32 noundef %5) #8
  %29 = icmp slt i32 %28, 0
  br i1 %29, label %30, label %34

30:                                               ; preds = %22
  %31 = load i64, ptr @H5E_OHDR_g, align 8, !tbaa !10
  %32 = load i64, ptr @H5E_BADTYPE_g, align 8, !tbaa !10
  %33 = tail call i32 (ptr, ptr, i32, i64, i64, ptr, ...) @H5E_printf_stack(ptr noundef nonnull @.str, ptr noundef nonnull @__func__.H5O_debug_id, i32 noundef 254, i64 noundef %31, i64 noundef %32, ptr noundef nonnull @.str.2) #8
  br label %34

34:                                               ; preds = %15, %30, %22, %19
  %.0 = phi i32 [ -1, %15 ], [ -1, %30 ], [ %28, %22 ], [ -1, %19 ]
  ret i32 %.0
}